target datalayout = "e-m:e-p270:32:32-p271:32:32-p272:64:64-i64:64-i128:128-f80:128-n8:16:32:64-S128"
target triple = "x86_64-pc-linux-gnu"

%class.VtableStub = type <{ ptr, i16, i16, i16, i8, i8 }>

@_ZN10VtableStub18_receiver_locationE = hidden global ptr null, align 8
@.str.6 = private unnamed_addr constant [79 x i8] c"vtable stub (index = %d, receiver_location = %ld, code = [0x%016lx, 0x%016lx])\00", align 1
@_ZN11VtableStubs15_vtab_stub_sizeE = hidden global i32 0, align 4
@_ZN11VtableStubs15_itab_stub_sizeE = hidden global i32 0, align 4

; Function Attrs: mustprogress nounwind uwtable
define hidden noundef i32 @_ZN11VtableStubs15code_size_limitEb(i1 noundef zeroext %0) #1 align 2 {
  %2 = alloca i32, align 4
  %3 = alloca i8, align 1
  %4 = zext i1 %0 to i8
  store i8 %4, ptr %3, align 1
  %5 = load i8, ptr %3, align 1
  %6 = trunc i8 %5 to i1
  br i1 %6, label %7, label %15

7:                                                ; preds = %1
  %8 = load i32, ptr @_ZN11VtableStubs15_vtab_stub_sizeE, align 4
  %9 = icmp sgt i32 %8, 0
  br i1 %9, label %10, label %12

10:                                               ; preds = %7
  %11 = load i32, ptr @_ZN11VtableStubs15_vtab_stub_sizeE, align 4
  br label %13

12:                                               ; preds = %7
  br label %13

13:                                               ; preds = %12, %10
  %14 = phi i32 [ %11, %10 ], [ 64, %12 ]
  store i32 %14, ptr %2, align 4
  br label %23

15:                                               ; preds = %1
  %16 = load i32, ptr @_ZN11VtableStubs15_itab_stub_sizeE, align 4
  %17 = icmp sgt i32 %16, 0
  br i1 %17, label %18, label %20

18:                                               ; preds = %15
  %19 = load i32, ptr @_ZN11VtableStubs15_itab_stub_sizeE, align 4
  br label %21

20:                                               ; preds = %15
  br label %21

21:                                               ; preds = %20, %18
  %22 = phi i32 [ %19, %18 ], [ 256, %20 ]
  store i32 %22, ptr %2, align 4
  br label %23

23:                                               ; preds = %21, %13
  %24 = load i32, ptr %2, align 4
  ret i32 %24
}

; Function Attrs: mustprogress nounwind uwtable
define linkonce_odr hidden noundef zeroext i1 @_ZNK10VtableStub14is_vtable_stubEv(ptr noundef nonnull align 8 dereferenceable(15) %0) #1 comdat align 2 {
  %2 = alloca ptr, align 8
  store ptr %0, ptr %2, align 8
  %3 = load ptr, ptr %2, align 8
  %4 = getelementptr inbounds %class.VtableStub, ptr %3, i32 0, i32 4
  %5 = load i8, ptr %4, align 2
  %6 = icmp eq i8 %5, 1
  ret i1 %6
}

; Function Attrs: mustprogress nounwind uwtable
define linkonce_odr hidden noundef ptr @_ZNK10VtableStub8code_endEv(ptr noundef nonnull align 8 dereferenceable(15) %0) #1 comdat align 2 {
  %2 = alloca ptr, align 8
  store ptr %0, ptr %2, align 8
  %3 = load ptr, ptr %2, align 8
  %4 = call noundef ptr @_ZNK10VtableStub10code_beginEv(ptr noundef nonnull align 8 dereferenceable(15) %3)
  %5 = call noundef zeroext i1 @_ZNK10VtableStub14is_vtable_stubEv(ptr noundef nonnull align 8 dereferenceable(15) %3)
  %6 = call noundef i32 @_ZN11VtableStubs15code_size_limitEb(i1 noundef zeroext %5)
  %7 = sext i32 %6 to i64
  %8 = getelementptr inbounds i8, ptr %4, i64 %7
  ret ptr %8
}

; Function Attrs: mustprogress nounwind uwtable
define linkonce_odr hidden noundef ptr @_ZNK10VtableStub10code_beginEv(ptr noundef nonnull align 8 dereferenceable(15) %0) #1 comdat align 2 {
  %2 = alloca ptr, align 8
  store ptr %0, ptr %2, align 8
  %3 = load ptr, ptr %2, align 8
  %4 = getelementptr inbounds %class.VtableStub, ptr %3, i64 1
  ret ptr %4
}

; Function Attrs: mustprogress nounwind uwtable
define linkonce_odr hidden noundef i64 @_Z3p2iPVKv(ptr noundef %0) #1 comdat {
  %2 = alloca ptr, align 8
  store ptr %0, ptr %2, align 8
  %3 = load ptr, ptr %2, align 8
  %4 = ptrtoint ptr %3 to i64
  ret i64 %4
}

; Function Attrs: mustprogress nounwind uwtable
define linkonce_odr hidden noundef ptr @_ZN10VtableStub17receiver_locationEv() #1 comdat align 2 {
  %1 = load ptr, ptr @_ZN10VtableStub18_receiver_locationE, align 8
  ret ptr %1
}

; Function Attrs: mustprogress nounwind uwtable
define linkonce_odr hidden noundef i32 @_ZNK10VtableStub5indexEv(ptr noundef nonnull align 8 dereferenceable(15) %0) #1 comdat align 2 {
  %2 = alloca ptr, align 8
  store ptr %0, ptr %2, align 8
  %3 = load ptr, ptr %2, align 8
  %4 = getelementptr inbounds %class.VtableStub, ptr %3, i32 0, i32 1
  %5 = load i16, ptr %4, align 8
  %6 = sext i16 %5 to i32
  ret i32 %6
}

; Function Attrs: mustprogress nounwind uwtable
define hidden void @_ZNK10VtableStub8print_onEP12outputStream(ptr noundef nonnull align 8 dereferenceable(15) %0, ptr noundef %1) #1 align 2 {
  %3 = alloca ptr, align 8
  %4 = alloca ptr, align 8
  store ptr %0, ptr %3, align 8
  store ptr %1, ptr %4, align 8
  %5 = load ptr, ptr %3, align 8
  %6 = load ptr, ptr %4, align 8
  %7 = call noundef i32 @_ZNK10VtableStub5indexEv(ptr noundef nonnull align 8 dereferenceable(15) %5)
  %8 = call noundef ptr @_ZN10VtableStub17receiver_locationEv()
  %9 = call noundef i64 @_Z3p2iPVKv(ptr noundef %8)
  %10 = call noundef ptr @_ZNK10VtableStub10code_beginEv(ptr noundef nonnull align 8 dereferenceable(15) %5)
  %11 = call noundef i64 @_Z3p2iPVKv(ptr noundef %10)
  %12 = call noundef ptr @_ZNK10VtableStub8code_endEv(ptr noundef nonnull align 8 dereferenceable(15) %5)
  %13 = call noundef i64 @_Z3p2iPVKv(ptr noundef %12)
  call void (ptr, ptr, ...) @_ZN12outputStream5printEPKcz(ptr noundef nonnull align 8 dereferenceable(56) %6, ptr noundef @.str.6, i32 noundef %7, i64 noundef %9, i64 noundef %11, i64 noundef %13)
  ret void
}